target datalayout = "e-m:e-p270:32:32-p271:32:32-p272:64:64-i64:64-i128:128-f80:128-n8:16:32:64-S128"
target triple = "x86_64-pc-linux-gnu"

%struct.psa_key_attributes_s = type { %struct.psa_core_key_attributes_t, ptr, i64 }
%struct.psa_core_key_attributes_t = type { i16, i16, i32, i32, %struct.psa_key_policy_s, i16 }
%struct.psa_key_policy_s = type { i32, i32, i32 }

; Function Attrs: nounwind uwtable
define internal i32 @psa_get_key_lifetime(ptr noundef %0) #0 {
  %2 = alloca ptr, align 8
  store ptr %0, ptr %2, align 8
  %3 = load ptr, ptr %2, align 8
  %4 = getelementptr inbounds %struct.psa_key_attributes_s, ptr %3, i32 0, i32 0
  %5 = getelementptr inbounds %struct.psa_core_key_attributes_t, ptr %4, i32 0, i32 2
  %6 = load i32, ptr %5, align 4
  ret i32 %6
}

; Function Attrs: nounwind uwtable
define hidden i32 @psa_driver_wrapper_export_public_key(ptr noundef %0, ptr noundef %1, i64 noundef %2, ptr noundef %3, i64 noundef %4, ptr noundef %5) #0 {
  %7 = alloca i32, align 4
  %8 = alloca ptr, align 8
  %9 = alloca ptr, align 8
  %10 = alloca i64, align 8
  %11 = alloca ptr, align 8
  %12 = alloca i64, align 8
  %13 = alloca ptr, align 8
  %14 = alloca i32, align 4
  %15 = alloca i32, align 4
  store ptr %0, ptr %8, align 8
  store ptr %1, ptr %9, align 8
  store i64 %2, ptr %10, align 8
  store ptr %3, ptr %11, align 8
  store i64 %4, ptr %12, align 8
  store ptr %5, ptr %13, align 8
  store i32 -135, ptr %14, align 4
  %16 = load ptr, ptr %8, align 8
  %17 = call i32 @psa_get_key_lifetime(ptr noundef %16)
  %18 = lshr i32 %17, 8
  store i32 %18, ptr %15, align 4
  %19 = load i32, ptr %15, align 4
  switch i32 %19, label %28 [
    i32 0, label %20
  ]

20:                                               ; preds = %6
  %21 = load ptr, ptr %8, align 8
  %22 = load ptr, ptr %9, align 8
  %23 = load i64, ptr %10, align 8
  %24 = load ptr, ptr %11, align 8
  %25 = load i64, ptr %12, align 8
  %26 = load ptr, ptr %13, align 8
  %27 = call i32 @psa_export_public_key_internal(ptr noundef %21, ptr noundef %22, i64 noundef %23, ptr noundef %24, i64 noundef %25, ptr noundef %26)
  store i32 %27, ptr %7, align 4
  br label %30

28:                                               ; preds = %6
  %29 = load i32, ptr %14, align 4
  store i32 %29, ptr %7, align 4
  br label %30

30:                                               ; preds = %28, %20
  %31 = load i32, ptr %7, align 4
  ret i32 %31
}