; Function Attrs: nounwind uwtable
define hidden i32 @psa_driver_wrapper_export_public_key(ptr noundef %0, ptr noundef %1, i64 noundef %2, ptr noundef %3, i64 noundef %4, ptr noundef %5) local_unnamed_addr #1 {
  %7 = getelementptr i8, ptr %0, i64 4
  %.val = load i32, ptr %7, align 4
  %cond = icmp ult i32 %.val, 256
  br i1 %cond, label %8, label %10

8:                                                ; preds = %6
  %9 = tail call i32 @psa_export_public_key_internal(ptr noundef nonnull %0, ptr noundef %1, i64 noundef %2, ptr noundef %3, i64 noundef %4, ptr noundef %5) #5
  br label %10

10:                                               ; preds = %6, %8
  %.0 = phi i32 [ %9, %8 ], [ -135, %6 ]
  ret i32 %.0
}